target datalayout = "e-m:e-p270:32:32-p271:32:32-p272:64:64-i64:64-i128:128-f80:128-n8:16:32:64-S128"
target triple = "x86_64-pc-linux-gnu"

; Function Attrs: mustprogress nounwind uwtable
define internal void @_ZL21shift_positions_groupPA3_KfPA3_fPA3_ii(ptr noundef %0, ptr noundef %1, ptr noundef %2, i32 noundef %3) #5 {
  %5 = alloca ptr, align 8
  %6 = alloca ptr, align 8
  %7 = alloca ptr, align 8
  %8 = alloca i32, align 4
  %9 = alloca i32, align 4
  %10 = alloca i32, align 4
  %11 = alloca i32, align 4
  %12 = alloca i32, align 4
  store ptr %0, ptr %5, align 8, !tbaa !68
  store ptr %1, ptr %6, align 8, !tbaa !68
  store ptr %2, ptr %7, align 8, !tbaa !11
  store i32 %3, ptr %8, align 4, !tbaa !9
  call void @llvm.lifetime.start.p0(i64 4, ptr %9) #10
  call void @llvm.lifetime.start.p0(i64 4, ptr %10) #10
  call void @llvm.lifetime.start.p0(i64 4, ptr %11) #10
  call void @llvm.lifetime.start.p0(i64 4, ptr %12) #10
  %13 = load ptr, ptr %5, align 8, !tbaa !68
  %14 = getelementptr inbounds [3 x float], ptr %13, i64 1
  %15 = getelementptr inbounds [3 x float], ptr %14, i64 0, i64 0
  %16 = load float, ptr %15, align 4, !tbaa !92
  %17 = fcmp une float %16, 0.000000e+00
  br i1 %17, label %30, label %18

18:                                               ; preds = %4
  %19 = load ptr, ptr %5, align 8, !tbaa !68
  %20 = getelementptr inbounds [3 x float], ptr %19, i64 2
  %21 = getelementptr inbounds [3 x float], ptr %20, i64 0, i64 0
  %22 = load float, ptr %21, align 4, !tbaa !92
  %23 = fcmp une float %22, 0.000000e+00
  br i1 %23, label %30, label %24

24:                                               ; preds = %18
  %25 = load ptr, ptr %5, align 8, !tbaa !68
  %26 = getelementptr inbounds [3 x float], ptr %25, i64 2
  %27 = getelementptr inbounds [3 x float], ptr %26, i64 0, i64 1
  %28 = load float, ptr %27, align 4, !tbaa !92
  %29 = fcmp une float %28, 0.000000e+00
  br i1 %29, label %30, label %133

30:                                               ; preds = %24, %18, %4
  store i32 0, ptr %9, align 4, !tbaa !9
  br label %31

31:                                               ; preds = %129, %30
  %32 = load i32, ptr %9, align 4, !tbaa !9
  %33 = load i32, ptr %8, align 4, !tbaa !9
  %34 = icmp slt i32 %32, %33
  br i1 %34, label %35, label %132

35:                                               ; preds = %31
  %36 = load ptr, ptr %7, align 8, !tbaa !11
  %37 = load i32, ptr %9, align 4, !tbaa !9
  %38 = sext i32 %37 to i64
  %39 = getelementptr inbounds [3 x i32], ptr %36, i64 %38
  %40 = getelementptr inbounds [3 x i32], ptr %39, i64 0, i64 0
  %41 = load i32, ptr %40, align 4, !tbaa !9
  store i32 %41, ptr %10, align 4, !tbaa !9
  %42 = load ptr, ptr %7, align 8, !tbaa !11
  %43 = load i32, ptr %9, align 4, !tbaa !9
  %44 = sext i32 %43 to i64
  %45 = getelementptr inbounds [3 x i32], ptr %42, i64 %44
  %46 = getelementptr inbounds [3 x i32], ptr %45, i64 0, i64 1
  %47 = load i32, ptr %46, align 4, !tbaa !9
  store i32 %47, ptr %11, align 4, !tbaa !9
  %48 = load ptr, ptr %7, align 8, !tbaa !11
  %49 = load i32, ptr %9, align 4, !tbaa !9
  %50 = sext i32 %49 to i64
  %51 = getelementptr inbounds [3 x i32], ptr %48, i64 %50
  %52 = getelementptr inbounds [3 x i32], ptr %51, i64 0, i64 2
  %53 = load i32, ptr %52, align 4, !tbaa !9
  store i32 %53, ptr %12, align 4, !tbaa !9
  %54 = load ptr, ptr %6, align 8, !tbaa !68
  %55 = load i32, ptr %9, align 4, !tbaa !9
  %56 = sext i32 %55 to i64
  %57 = getelementptr inbounds [3 x float], ptr %54, i64 %56
  %58 = getelementptr inbounds [3 x float], ptr %57, i64 0, i64 0
  %59 = load float, ptr %58, align 4, !tbaa !92
  %60 = load i32, ptr %10, align 4, !tbaa !9
  %61 = sitofp i32 %60 to float
  %62 = load ptr, ptr %5, align 8, !tbaa !68
  %63 = getelementptr inbounds [3 x float], ptr %62, i64 0
  %64 = getelementptr inbounds [3 x float], ptr %63, i64 0, i64 0
  %65 = load float, ptr %64, align 4, !tbaa !92
  %66 = call float @llvm.fmuladd.f32(float %61, float %65, float %59)
  %67 = load i32, ptr %11, align 4, !tbaa !9
  %68 = sitofp i32 %67 to float
  %69 = load ptr, ptr %5, align 8, !tbaa !68
  %70 = getelementptr inbounds [3 x float], ptr %69, i64 1
  %71 = getelementptr inbounds [3 x float], ptr %70, i64 0, i64 0
  %72 = load float, ptr %71, align 4, !tbaa !92
  %73 = call float @llvm.fmuladd.f32(float %68, float %72, float %66)
  %74 = load i32, ptr %12, align 4, !tbaa !9
  %75 = sitofp i32 %74 to float
  %76 = load ptr, ptr %5, align 8, !tbaa !68
  %77 = getelementptr inbounds [3 x float], ptr %76, i64 2
  %78 = getelementptr inbounds [3 x float], ptr %77, i64 0, i64 0
  %79 = load float, ptr %78, align 4, !tbaa !92
  %80 = call float @llvm.fmuladd.f32(float %75, float %79, float %73)
  %81 = load ptr, ptr %6, align 8, !tbaa !68
  %82 = load i32, ptr %9, align 4, !tbaa !9
  %83 = sext i32 %82 to i64
  %84 = getelementptr inbounds [3 x float], ptr %81, i64 %83
  %85 = getelementptr inbounds [3 x float], ptr %84, i64 0, i64 0
  store float %80, ptr %85, align 4, !tbaa !92
  %86 = load ptr, ptr %6, align 8, !tbaa !68
  %87 = load i32, ptr %9, align 4, !tbaa !9
  %88 = sext i32 %87 to i64
  %89 = getelementptr inbounds [3 x float], ptr %86, i64 %88
  %90 = getelementptr inbounds [3 x float], ptr %89, i64 0, i64 1
  %91 = load float, ptr %90, align 4, !tbaa !92
  %92 = load i32, ptr %11, align 4, !tbaa !9
  %93 = sitofp i32 %92 to float
  %94 = load ptr, ptr %5, align 8, !tbaa !68
  %95 = getelementptr inbounds [3 x float], ptr %94, i64 1
  %96 = getelementptr inbounds [3 x float], ptr %95, i64 0, i64 1
  %97 = load float, ptr %96, align 4, !tbaa !92
  %98 = call float @llvm.fmuladd.f32(float %93, float %97, float %91)
  %99 = load i32, ptr %12, align 4, !tbaa !9
  %100 = sitofp i32 %99 to float
  %101 = load ptr, ptr %5, align 8, !tbaa !68
  %102 = getelementptr inbounds [3 x float], ptr %101, i64 2
  %103 = getelementptr inbounds [3 x float], ptr %102, i64 0, i64 1
  %104 = load float, ptr %103, align 4, !tbaa !92
  %105 = call float @llvm.fmuladd.f32(float %100, float %104, float %98)
  %106 = load ptr, ptr %6, align 8, !tbaa !68
  %107 = load i32, ptr %9, align 4, !tbaa !9
  %108 = sext i32 %107 to i64
  %109 = getelementptr inbounds [3 x float], ptr %106, i64 %108
  %110 = getelementptr inbounds [3 x float], ptr %109, i64 0, i64 1
  store float %105, ptr %110, align 4, !tbaa !92
  %111 = load ptr, ptr %6, align 8, !tbaa !68
  %112 = load i32, ptr %9, align 4, !tbaa !9
  %113 = sext i32 %112 to i64
  %114 = getelementptr inbounds [3 x float], ptr %111, i64 %113
  %115 = getelementptr inbounds [3 x float], ptr %114, i64 0, i64 2
  %116 = load float, ptr %115, align 4, !tbaa !92
  %117 = load i32, ptr %12, align 4, !tbaa !9
  %118 = sitofp i32 %117 to float
  %119 = load ptr, ptr %5, align 8, !tbaa !68
  %120 = getelementptr inbounds [3 x float], ptr %119, i64 2
  %121 = getelementptr inbounds [3 x float], ptr %120, i64 0, i64 2
  %122 = load float, ptr %121, align 4, !tbaa !92
  %123 = call float @llvm.fmuladd.f32(float %118, float %122, float %116)
  %124 = load ptr, ptr %6, align 8, !tbaa !68
  %125 = load i32, ptr %9, align 4, !tbaa !9
  %126 = sext i32 %125 to i64
  %127 = getelementptr inbounds [3 x float], ptr %124, i64 %126
  %128 = getelementptr inbounds [3 x float], ptr %127, i64 0, i64 2
  store float %123, ptr %128, align 4, !tbaa !92
  br label %129

129:                                              ; preds = %35
  %130 = load i32, ptr %9, align 4, !tbaa !9
  %131 = add nsw i32 %130, 1
  store i32 %131, ptr %9, align 4, !tbaa !9
  br label %31, !llvm.loop !94

132:                                              ; preds = %31
  br label %215

133:                                              ; preds = %24
  store i32 0, ptr %9, align 4, !tbaa !9
  br label %134

134:                                              ; preds = %211, %133
  %135 = load i32, ptr %9, align 4, !tbaa !9
  %136 = load i32, ptr %8, align 4, !tbaa !9
  %137 = icmp slt i32 %135, %136
  br i1 %137, label %138, label %214

138:                                              ; preds = %134
  %139 = load ptr, ptr %7, align 8, !tbaa !11
  %140 = load i32, ptr %9, align 4, !tbaa !9
  %141 = sext i32 %140 to i64
  %142 = getelementptr inbounds [3 x i32], ptr %139, i64 %141
  %143 = getelementptr inbounds [3 x i32], ptr %142, i64 0, i64 0
  %144 = load i32, ptr %143, align 4, !tbaa !9
  store i32 %144, ptr %10, align 4, !tbaa !9
  %145 = load ptr, ptr %7, align 8, !tbaa !11
  %146 = load i32, ptr %9, align 4, !tbaa !9
  %147 = sext i32 %146 to i64
  %148 = getelementptr inbounds [3 x i32], ptr %145, i64 %147
  %149 = getelementptr inbounds [3 x i32], ptr %148, i64 0, i64 1
  %150 = load i32, ptr %149, align 4, !tbaa !9
  store i32 %150, ptr %11, align 4, !tbaa !9
  %151 = load ptr, ptr %7, align 8, !tbaa !11
  %152 = load i32, ptr %9, align 4, !tbaa !9
  %153 = sext i32 %152 to i64
  %154 = getelementptr inbounds [3 x i32], ptr %151, i64 %153
  %155 = getelementptr inbounds [3 x i32], ptr %154, i64 0, i64 2
  %156 = load i32, ptr %155, align 4, !tbaa !9
  store i32 %156, ptr %12, align 4, !tbaa !9
  %157 = load ptr, ptr %6, align 8, !tbaa !68
  %158 = load i32, ptr %9, align 4, !tbaa !9
  %159 = sext i32 %158 to i64
  %160 = getelementptr inbounds [3 x float], ptr %157, i64 %159
  %161 = getelementptr inbounds [3 x float], ptr %160, i64 0, i64 0
  %162 = load float, ptr %161, align 4, !tbaa !92
  %163 = load i32, ptr %10, align 4, !tbaa !9
  %164 = sitofp i32 %163 to float
  %165 = load ptr, ptr %5, align 8, !tbaa !68
  %166 = getelementptr inbounds [3 x float], ptr %165, i64 0
  %167 = getelementptr inbounds [3 x float], ptr %166, i64 0, i64 0
  %168 = load float, ptr %167, align 4, !tbaa !92
  %169 = call float @llvm.fmuladd.f32(float %164, float %168, float %162)
  %170 = load ptr, ptr %6, align 8, !tbaa !68
  %171 = load i32, ptr %9, align 4, !tbaa !9
  %172 = sext i32 %171 to i64
  %173 = getelementptr inbounds [3 x float], ptr %170, i64 %172
  %174 = getelementptr inbounds [3 x float], ptr %173, i64 0, i64 0
  store float %169, ptr %174, align 4, !tbaa !92
  %175 = load ptr, ptr %6, align 8, !tbaa !68
  %176 = load i32, ptr %9, align 4, !tbaa !9
  %177 = sext i32 %176 to i64
  %178 = getelementptr inbounds [3 x float], ptr %175, i64 %177
  %179 = getelementptr inbounds [3 x float], ptr %178, i64 0, i64 1
  %180 = load float, ptr %179, align 4, !tbaa !92
  %181 = load i32, ptr %11, align 4, !tbaa !9
  %182 = sitofp i32 %181 to float
  %183 = load ptr, ptr %5, align 8, !tbaa !68
  %184 = getelementptr inbounds [3 x float], ptr %183, i64 1
  %185 = getelementptr inbounds [3 x float], ptr %184, i64 0, i64 1
  %186 = load float, ptr %185, align 4, !tbaa !92
  %187 = call float @llvm.fmuladd.f32(float %182, float %186, float %180)
  %188 = load ptr, ptr %6, align 8, !tbaa !68
  %189 = load i32, ptr %9, align 4, !tbaa !9
  %190 = sext i32 %189 to i64
  %191 = getelementptr inbounds [3 x float], ptr %188, i64 %190
  %192 = getelementptr inbounds [3 x float], ptr %191, i64 0, i64 1
  store float %187, ptr %192, align 4, !tbaa !92
  %193 = load ptr, ptr %6, align 8, !tbaa !68
  %194 = load i32, ptr %9, align 4, !tbaa !9
  %195 = sext i32 %194 to i64
  %196 = getelementptr inbounds [3 x float], ptr %193, i64 %195
  %197 = getelementptr inbounds [3 x float], ptr %196, i64 0, i64 2
  %198 = load float, ptr %197, align 4, !tbaa !92
  %199 = load i32, ptr %12, align 4, !tbaa !9
  %200 = sitofp i32 %199 to float
  %201 = load ptr, ptr %5, align 8, !tbaa !68
  %202 = getelementptr inbounds [3 x float], ptr %201, i64 2
  %203 = getelementptr inbounds [3 x float], ptr %202, i64 0, i64 2
  %204 = load float, ptr %203, align 4, !tbaa !92
  %205 = call float @llvm.fmuladd.f32(float %200, float %204, float %198)
  %206 = load ptr, ptr %6, align 8, !tbaa !68
  %207 = load i32, ptr %9, align 4, !tbaa !9
  %208 = sext i32 %207 to i64
  %209 = getelementptr inbounds [3 x float], ptr %206, i64 %208
  %210 = getelementptr inbounds [3 x float], ptr %209, i64 0, i64 2
  store float %205, ptr %210, align 4, !tbaa !92
  br label %211

211:                                              ; preds = %138
  %212 = load i32, ptr %9, align 4, !tbaa !9
  %213 = add nsw i32 %212, 1
  store i32 %213, ptr %9, align 4, !tbaa !9
  br label %134, !llvm.loop !95

214:                                              ; preds = %134
  br label %215

215:                                              ; preds = %214, %132
  call void @llvm.lifetime.end.p0(i64 4, ptr %12) #10
  call void @llvm.lifetime.end.p0(i64 4, ptr %11) #10
  call void @llvm.lifetime.end.p0(i64 4, ptr %10) #10
  call void @llvm.lifetime.end.p0(i64 4, ptr %9) #10
  ret void
}