; Function Attrs: mustprogress nofree norecurse nosync nounwind memory(argmem: readwrite) uwtable
define internal fastcc void @_ZL21shift_positions_groupPA3_KfPA3_fPA3_ii(ptr noundef readonly captures(none) %0, ptr noundef captures(none) %1, ptr noundef readonly captures(none) %2, i32 noundef %3) unnamed_addr #5 {
  %5 = getelementptr inbounds nuw i8, ptr %0, i64 12
  %6 = load float, ptr %5, align 4, !tbaa !37
  %7 = fcmp une float %6, 0.000000e+00
  br i1 %7, label %19, label %8

8:                                                ; preds = %4
  %9 = getelementptr inbounds nuw i8, ptr %0, i64 24
  %10 = load float, ptr %9, align 4, !tbaa !37
  %11 = fcmp une float %10, 0.000000e+00
  br i1 %11, label %19, label %12

12:                                               ; preds = %8
  %13 = getelementptr inbounds nuw i8, ptr %0, i64 28
  %14 = load float, ptr %13, align 4, !tbaa !37
  %15 = fcmp une float %14, 0.000000e+00
  br i1 %15, label %19, label %.preheader

.preheader:                                       ; preds = %12
  %16 = icmp sgt i32 %3, 0
  br i1 %16, label %.lr.ph, label %.loopexit

.lr.ph:                                           ; preds = %.preheader
  %17 = getelementptr inbounds nuw i8, ptr %0, i64 16
  %18 = getelementptr inbounds nuw i8, ptr %0, i64 32
  %wide.trip.count = zext nneg i32 %3 to i64
  br label %53

19:                                               ; preds = %12, %8, %4
  %20 = icmp sgt i32 %3, 0
  br i1 %20, label %.lr.ph65, label %.loopexit

.lr.ph65:                                         ; preds = %19
  %21 = getelementptr inbounds nuw i8, ptr %0, i64 24
  %22 = getelementptr inbounds nuw i8, ptr %0, i64 16
  %23 = getelementptr inbounds nuw i8, ptr %0, i64 28
  %24 = getelementptr inbounds nuw i8, ptr %0, i64 32
  %wide.trip.count71 = zext nneg i32 %3 to i64
  br label %25

25:                                               ; preds = %.lr.ph65, %25
  %indvars.iv68 = phi i64 [ 0, %.lr.ph65 ], [ %indvars.iv.next69, %25 ]
  %26 = getelementptr inbounds nuw [3 x i32], ptr %2, i64 %indvars.iv68
  %27 = load i32, ptr %26, align 4, !tbaa !9
  %28 = getelementptr inbounds nuw i8, ptr %26, i64 4
  %29 = load i32, ptr %28, align 4, !tbaa !9
  %30 = getelementptr inbounds nuw i8, ptr %26, i64 8
  %31 = load i32, ptr %30, align 4, !tbaa !9
  %32 = getelementptr inbounds nuw [3 x float], ptr %1, i64 %indvars.iv68
  %33 = load float, ptr %32, align 4, !tbaa !37
  %34 = sitofp i32 %27 to float
  %35 = load float, ptr %0, align 4, !tbaa !37
  %36 = tail call float @llvm.fmuladd.f32(float %34, float %35, float %33)
  %37 = sitofp i32 %29 to float
  %38 = load float, ptr %5, align 4, !tbaa !37
  %39 = tail call float @llvm.fmuladd.f32(float %37, float %38, float %36)
  %40 = sitofp i32 %31 to float
  %41 = load float, ptr %21, align 4, !tbaa !37
  %42 = tail call float @llvm.fmuladd.f32(float %40, float %41, float %39)
  store float %42, ptr %32, align 4, !tbaa !37
  %43 = getelementptr inbounds nuw i8, ptr %32, i64 4
  %44 = load float, ptr %43, align 4, !tbaa !37
  %45 = load float, ptr %22, align 4, !tbaa !37
  %46 = tail call float @llvm.fmuladd.f32(float %37, float %45, float %44)
  %47 = load float, ptr %23, align 4, !tbaa !37
  %48 = tail call float @llvm.fmuladd.f32(float %40, float %47, float %46)
  store float %48, ptr %43, align 4, !tbaa !37
  %49 = getelementptr inbounds nuw i8, ptr %32, i64 8
  %50 = load float, ptr %49, align 4, !tbaa !37
  %51 = load float, ptr %24, align 4, !tbaa !37
  %52 = tail call float @llvm.fmuladd.f32(float %40, float %51, float %50)
  store float %52, ptr %49, align 4, !tbaa !37
  %indvars.iv.next69 = add nuw nsw i64 %indvars.iv68, 1
  %exitcond72.not = icmp eq i64 %indvars.iv.next69, %wide.trip.count71
  br i1 %exitcond72.not, label %.loopexit, label %25, !llvm.loop !66

53:                                               ; preds = %.lr.ph, %53
  %indvars.iv = phi i64 [ 0, %.lr.ph ], [ %indvars.iv.next, %53 ]
  %54 = getelementptr inbounds nuw [3 x i32], ptr %2, i64 %indvars.iv
  %55 = load i32, ptr %54, align 4, !tbaa !9
  %56 = getelementptr inbounds nuw i8, ptr %54, i64 4
  %57 = load i32, ptr %56, align 4, !tbaa !9
  %58 = getelementptr inbounds nuw i8, ptr %54, i64 8
  %59 = load i32, ptr %58, align 4, !tbaa !9
  %60 = getelementptr inbounds nuw [3 x float], ptr %1, i64 %indvars.iv
  %61 = load float, ptr %60, align 4, !tbaa !37
  %62 = sitofp i32 %55 to float
  %63 = load float, ptr %0, align 4, !tbaa !37
  %64 = tail call float @llvm.fmuladd.f32(float %62, float %63, float %61)
  store float %64, ptr %60, align 4, !tbaa !37
  %65 = getelementptr inbounds nuw i8, ptr %60, i64 4
  %66 = load float, ptr %65, align 4, !tbaa !37
  %67 = sitofp i32 %57 to float
  %68 = load float, ptr %17, align 4, !tbaa !37
  %69 = tail call float @llvm.fmuladd.f32(float %67, float %68, float %66)
  store float %69, ptr %65, align 4, !tbaa !37
  %70 = getelementptr inbounds nuw i8, ptr %60, i64 8
  %71 = load float, ptr %70, align 4, !tbaa !37
  %72 = sitofp i32 %59 to float
  %73 = load float, ptr %18, align 4, !tbaa !37
  %74 = tail call float @llvm.fmuladd.f32(float %72, float %73, float %71)
  store float %74, ptr %70, align 4, !tbaa !37
  %indvars.iv.next = add nuw nsw i64 %indvars.iv, 1
  %exitcond.not = icmp eq i64 %indvars.iv.next, %wide.trip.count
  br i1 %exitcond.not, label %.loopexit, label %53, !llvm.loop !67

.loopexit:                                        ; preds = %53, %25, %.preheader, %19
  ret void
}